target datalayout = "e-m:e-p270:32:32-p271:32:32-p272:64:64-i64:64-i128:128-f80:128-n8:16:32:64-S128"
target triple = "x86_64-pc-linux-gnu"

%struct.nameData = type { [64 x i8] }
%struct.AlterEventTrigStmt = type { i32, ptr, i8 }
%struct.FormData_pg_event_trigger = type { i32, %struct.nameData, %struct.nameData, i32, i32, i8 }
%struct.HeapTupleData = type { i32, %struct.ItemPointerData, i32, ptr }
%struct.ItemPointerData = type { %struct.BlockIdData, i16 }
%struct.BlockIdData = type { i16, i16 }
%struct.HeapTupleHeaderData = type { %union.anon.6, %struct.ItemPointerData, i16, i16, i8, [0 x i8] }
%union.anon.6 = type { %struct.HeapTupleFields }
%struct.HeapTupleFields = type { i32, i32, %union.anon.7 }
%union.anon.7 = type { i32 }

@.str.2 = private unnamed_addr constant [16 x i8] c"event_trigger.c\00", align 1
@.str.6 = private unnamed_addr constant [6 x i8] c"login\00", align 1
@.str.15 = private unnamed_addr constant [34 x i8] c"event trigger \22%s\22 does not exist\00", align 1
@__func__.AlterEventTrigger = private unnamed_addr constant [18 x i8] c"AlterEventTrigger\00", align 1
@object_access_hook = external global ptr, align 8

; Function Attrs: inlinehint nounwind uwtable
define internal i64 @PointerGetDatum(ptr noundef %0) #6 {
  %2 = alloca ptr, align 8
  store ptr %0, ptr %2, align 8
  %3 = load ptr, ptr %2, align 8
  %4 = ptrtoint ptr %3 to i64
  ret i64 %4
}

; Function Attrs: inlinehint nounwind uwtable
define internal ptr @GETSTRUCT(ptr noundef %0) #6 {
  %2 = alloca ptr, align 8
  store ptr %0, ptr %2, align 8
  %3 = load ptr, ptr %2, align 8
  %4 = getelementptr inbounds nuw %struct.HeapTupleData, ptr %3, i32 0, i32 3
  %5 = load ptr, ptr %4, align 8
  %6 = load ptr, ptr %2, align 8
  %7 = getelementptr inbounds nuw %struct.HeapTupleData, ptr %6, i32 0, i32 3
  %8 = load ptr, ptr %7, align 8
  %9 = getelementptr inbounds nuw %struct.HeapTupleHeaderData, ptr %8, i32 0, i32 4
  %10 = load i8, ptr %9, align 2
  %11 = zext i8 %10 to i32
  %12 = sext i32 %11 to i64
  %13 = getelementptr inbounds i8, ptr %5, i64 %12
  ret ptr %13
}

; Function Attrs: inlinehint nounwind uwtable
define internal i64 @CStringGetDatum(ptr noundef %0) #6 {
  %2 = alloca ptr, align 8
  store ptr %0, ptr %2, align 8
  %3 = load ptr, ptr %2, align 8
  %4 = call i64 @PointerGetDatum(ptr noundef %3)
  ret i64 %4
}

; Function Attrs: nounwind uwtable
define dso_local i32 @AlterEventTrigger(ptr noundef %0) #0 {
  %2 = alloca ptr, align 8
  %3 = alloca ptr, align 8
  %4 = alloca ptr, align 8
  %5 = alloca i32, align 4
  %6 = alloca ptr, align 8
  %7 = alloca i8, align 1
  store ptr %0, ptr %2, align 8
  call void @llvm.lifetime.start.p0(i64 8, ptr %3) #10
  call void @llvm.lifetime.start.p0(i64 8, ptr %4) #10
  call void @llvm.lifetime.start.p0(i64 4, ptr %5) #10
  call void @llvm.lifetime.start.p0(i64 8, ptr %6) #10
  call void @llvm.lifetime.start.p0(i64 1, ptr %7) #10
  %8 = load ptr, ptr %2, align 8
  %9 = getelementptr inbounds nuw %struct.AlterEventTrigStmt, ptr %8, i32 0, i32 2
  %10 = load i8, ptr %9, align 8
  store i8 %10, ptr %7, align 1
  %11 = call ptr @table_open(i32 noundef 3466, i32 noundef 3)
  store ptr %11, ptr %3, align 8
  %12 = load ptr, ptr %2, align 8
  %13 = getelementptr inbounds nuw %struct.AlterEventTrigStmt, ptr %12, i32 0, i32 1
  %14 = load ptr, ptr %13, align 8
  %15 = call i64 @CStringGetDatum(ptr noundef %14)
  %16 = call ptr @SearchSysCacheCopy(i32 noundef 25, i64 noundef %15, i64 noundef 0, i64 noundef 0, i64 noundef 0)
  store ptr %16, ptr %4, align 8
  %17 = load ptr, ptr %4, align 8
  %18 = icmp ne ptr %17, null
  br i1 %18, label %34, label %19

19:                                               ; preds = %1
  br label %20

20:                                               ; preds = %19
  br i1 true, label %21, label %23

21:                                               ; preds = %20
  %22 = call zeroext i1 @errstart_cold(i32 noundef 21, ptr noundef null) #11
  br i1 %22, label %25, label %31

23:                                               ; preds = %20
  %24 = call zeroext i1 @errstart(i32 noundef 21, ptr noundef null)
  br i1 %24, label %25, label %31

25:                                               ; preds = %23, %21
  %26 = call i32 @errcode(i32 noundef 67137668)
  %27 = load ptr, ptr %2, align 8
  %28 = getelementptr inbounds nuw %struct.AlterEventTrigStmt, ptr %27, i32 0, i32 1
  %29 = load ptr, ptr %28, align 8
  %30 = call i32 (ptr, ...) @errmsg(ptr noundef @.str.15, ptr noundef %29)
  call void @errfinish(ptr noundef @.str.2, i32 noundef 439, ptr noundef @__func__.AlterEventTrigger)
  br label %31

31:                                               ; preds = %25, %23, %21
  unreachable

32:                                               ; No predecessors!
  br label %33

33:                                               ; preds = %32
  br label %34

34:                                               ; preds = %33, %1
  %35 = load ptr, ptr %4, align 8
  %36 = call ptr @GETSTRUCT(ptr noundef %35)
  store ptr %36, ptr %6, align 8
  %37 = load ptr, ptr %6, align 8
  %38 = getelementptr inbounds nuw %struct.FormData_pg_event_trigger, ptr %37, i32 0, i32 0
  %39 = load i32, ptr %38, align 4
  store i32 %39, ptr %5, align 4
  %40 = load i32, ptr %5, align 4
  %41 = call i32 @GetUserId()
  %42 = call zeroext i1 @object_ownercheck(i32 noundef 3466, i32 noundef %40, i32 noundef %41)
  br i1 %42, label %47, label %43

43:                                               ; preds = %34
  %44 = load ptr, ptr %2, align 8
  %45 = getelementptr inbounds nuw %struct.AlterEventTrigStmt, ptr %44, i32 0, i32 1
  %46 = load ptr, ptr %45, align 8
  call void @aclcheck_error(i32 noundef 2, i32 noundef 14, ptr noundef %46)
  br label %47

47:                                               ; preds = %43, %34
  %48 = load i8, ptr %7, align 1
  %49 = load ptr, ptr %6, align 8
  %50 = getelementptr inbounds nuw %struct.FormData_pg_event_trigger, ptr %49, i32 0, i32 5
  store i8 %48, ptr %50, align 4
  %51 = load ptr, ptr %3, align 8
  %52 = load ptr, ptr %4, align 8
  %53 = getelementptr inbounds nuw %struct.HeapTupleData, ptr %52, i32 0, i32 1
  %54 = load ptr, ptr %4, align 8
  call void @CatalogTupleUpdate(ptr noundef %51, ptr noundef %53, ptr noundef %54)
  %55 = load ptr, ptr %6, align 8
  %56 = getelementptr inbounds nuw %struct.FormData_pg_event_trigger, ptr %55, i32 0, i32 2
  %57 = call i32 @namestrcmp(ptr noundef %56, ptr noundef @.str.6)
  %58 = icmp eq i32 %57, 0
  br i1 %58, label %59, label %64

59:                                               ; preds = %47
  %60 = load i8, ptr %7, align 1
  %61 = sext i8 %60 to i32
  %62 = icmp ne i32 %61, 68
  br i1 %62, label %63, label %64

63:                                               ; preds = %59
  call void @SetDatabaseHasLoginEventTriggers()
  br label %64

64:                                               ; preds = %63, %59, %47
  br label %65

65:                                               ; preds = %64
  %66 = load ptr, ptr @object_access_hook, align 8
  %67 = icmp ne ptr %66, null
  br i1 %67, label %68, label %70

68:                                               ; preds = %65
  %69 = load i32, ptr %5, align 4
  call void @RunObjectPostAlterHook(i32 noundef 3466, i32 noundef %69, i32 noundef 0, i32 noundef 0, i1 noundef zeroext false)
  br label %70

70:                                               ; preds = %68, %65
  br label %71

71:                                               ; preds = %70
  br label %72

72:                                               ; preds = %71
  %73 = load ptr, ptr %4, align 8
  call void @heap_freetuple(ptr noundef %73)
  %74 = load ptr, ptr %3, align 8
  call void @table_close(ptr noundef %74, i32 noundef 3)
  %75 = load i32, ptr %5, align 4
  call void @llvm.lifetime.end.p0(i64 1, ptr %7) #10
  call void @llvm.lifetime.end.p0(i64 8, ptr %6) #10
  call void @llvm.lifetime.end.p0(i64 4, ptr %5) #10
  call void @llvm.lifetime.end.p0(i64 8, ptr %4) #10
  call void @llvm.lifetime.end.p0(i64 8, ptr %3) #10
  ret i32 %75
}