; Function Attrs: nounwind uwtable
define dso_local i32 @AlterEventTrigger(ptr noundef readonly captures(none) %0) local_unnamed_addr #0 {
  %2 = getelementptr inbounds nuw i8, ptr %0, i64 16
  %3 = load i8, ptr %2, align 8
  %4 = tail call ptr @table_open(i32 noundef 3466, i32 noundef 3) #16
  %5 = getelementptr inbounds nuw i8, ptr %0, i64 8
  %6 = load ptr, ptr %5, align 8
  %7 = ptrtoint ptr %6 to i64
  %8 = tail call ptr @SearchSysCacheCopy(i32 noundef 25, i64 noundef %7, i64 noundef 0, i64 noundef 0, i64 noundef 0) #16
  %.not = icmp eq ptr %8, null
  br i1 %.not, label %9, label %14

9:                                                ; preds = %1
  %10 = tail call zeroext i1 @errstart_cold(i32 noundef 21, ptr noundef null) #17
  tail call void @llvm.assume(i1 %10)
  %11 = tail call i32 @errcode(i32 noundef 67137668) #16
  %12 = load ptr, ptr %5, align 8
  %13 = tail call i32 (ptr, ...) @errmsg(ptr noundef nonnull @.str.15, ptr noundef %12) #16
  tail call void @errfinish(ptr noundef nonnull @.str.2, i32 noundef 439, ptr noundef nonnull @__func__.AlterEventTrigger) #16
  unreachable

14:                                               ; preds = %1
  %15 = getelementptr i8, ptr %8, i64 16
  %.val = load ptr, ptr %15, align 8
  %16 = getelementptr inbounds nuw i8, ptr %.val, i64 22
  %17 = load i8, ptr %16, align 2
  %18 = zext i8 %17 to i64
  %19 = getelementptr inbounds nuw i8, ptr %.val, i64 %18
  %20 = load i32, ptr %19, align 4
  %21 = tail call i32 @GetUserId() #16
  %22 = tail call zeroext i1 @object_ownercheck(i32 noundef 3466, i32 noundef %20, i32 noundef %21) #16
  br i1 %22, label %25, label %23

23:                                               ; preds = %14
  %24 = load ptr, ptr %5, align 8
  tail call void @aclcheck_error(i32 noundef 2, i32 noundef 14, ptr noundef %24) #16
  br label %25

25:                                               ; preds = %23, %14
  %26 = getelementptr inbounds nuw i8, ptr %19, i64 140
  store i8 %3, ptr %26, align 4
  %27 = getelementptr inbounds nuw i8, ptr %8, i64 4
  tail call void @CatalogTupleUpdate(ptr noundef %4, ptr noundef nonnull %27, ptr noundef nonnull %8) #16
  %28 = getelementptr inbounds nuw i8, ptr %19, i64 68
  %29 = tail call i32 @namestrcmp(ptr noundef nonnull %28, ptr noundef nonnull @.str.6) #16
  %30 = icmp eq i32 %29, 0
  %31 = icmp ne i8 %3, 68
  %or.cond = select i1 %30, i1 %31, i1 false
  br i1 %or.cond, label %32, label %33

32:                                               ; preds = %25
  tail call fastcc void @SetDatabaseHasLoginEventTriggers()
  br label %33

33:                                               ; preds = %25, %32
  %34 = load ptr, ptr @object_access_hook, align 8
  %.not20 = icmp eq ptr %34, null
  br i1 %.not20, label %36, label %35

35:                                               ; preds = %33
  tail call void @RunObjectPostAlterHook(i32 noundef 3466, i32 noundef %20, i32 noundef 0, i32 noundef 0, i1 noundef zeroext false) #16
  br label %36

36:                                               ; preds = %35, %33
  tail call void @heap_freetuple(ptr noundef nonnull %8) #16
  tail call void @table_close(ptr noundef %4, i32 noundef 3) #16
  ret i32 %20
}